
mole.elf:     file format elf32-avr


Disassembly of section .text:

00000000 <__vectors>:
   0:	55 c0       	rjmp	.+170    	; 0xac <__ctors_end>
   2:	00 00       	nop
   4:	82 c0       	rjmp	.+260    	; 0x10a <__vector_1>
   6:	00 00       	nop
   8:	9c c0       	rjmp	.+312    	; 0x142 <__vector_2>
   a:	00 00       	nop
   c:	b6 c0       	rjmp	.+364    	; 0x17a <__vector_3>
   e:	00 00       	nop
  10:	d0 c0       	rjmp	.+416    	; 0x1b2 <__vector_4>
  12:	00 00       	nop
  14:	66 c0       	rjmp	.+204    	; 0xe2 <__bad_interrupt>
  16:	00 00       	nop
  18:	64 c0       	rjmp	.+200    	; 0xe2 <__bad_interrupt>
  1a:	00 00       	nop
  1c:	62 c0       	rjmp	.+196    	; 0xe2 <__bad_interrupt>
  1e:	00 00       	nop
  20:	60 c0       	rjmp	.+192    	; 0xe2 <__bad_interrupt>
  22:	00 00       	nop
  24:	5e c0       	rjmp	.+188    	; 0xe2 <__bad_interrupt>
  26:	00 00       	nop
  28:	5c c0       	rjmp	.+184    	; 0xe2 <__bad_interrupt>
  2a:	00 00       	nop
  2c:	5a c0       	rjmp	.+180    	; 0xe2 <__bad_interrupt>
  2e:	00 00       	nop
  30:	58 c0       	rjmp	.+176    	; 0xe2 <__bad_interrupt>
  32:	00 00       	nop
  34:	56 c0       	rjmp	.+172    	; 0xe2 <__bad_interrupt>
  36:	00 00       	nop
  38:	54 c0       	rjmp	.+168    	; 0xe2 <__bad_interrupt>
  3a:	00 00       	nop
  3c:	52 c0       	rjmp	.+164    	; 0xe2 <__bad_interrupt>
  3e:	00 00       	nop
  40:	50 c0       	rjmp	.+160    	; 0xe2 <__bad_interrupt>
  42:	00 00       	nop
  44:	4e c0       	rjmp	.+156    	; 0xe2 <__bad_interrupt>
  46:	00 00       	nop
  48:	4c c0       	rjmp	.+152    	; 0xe2 <__bad_interrupt>
  4a:	00 00       	nop
  4c:	4a c0       	rjmp	.+148    	; 0xe2 <__bad_interrupt>
  4e:	00 00       	nop
  50:	48 c0       	rjmp	.+144    	; 0xe2 <__bad_interrupt>
  52:	00 00       	nop
  54:	46 c0       	rjmp	.+140    	; 0xe2 <__bad_interrupt>
  56:	00 00       	nop
  58:	44 c0       	rjmp	.+136    	; 0xe2 <__bad_interrupt>
  5a:	00 00       	nop
  5c:	43 c0       	rjmp	.+134    	; 0xe4 <__vector_23>
  5e:	00 00       	nop
  60:	40 c0       	rjmp	.+128    	; 0xe2 <__bad_interrupt>
  62:	00 00       	nop
  64:	3e c0       	rjmp	.+124    	; 0xe2 <__bad_interrupt>
  66:	00 00       	nop
  68:	3c c0       	rjmp	.+120    	; 0xe2 <__bad_interrupt>
  6a:	00 00       	nop
  6c:	3a c0       	rjmp	.+116    	; 0xe2 <__bad_interrupt>
  6e:	00 00       	nop
  70:	38 c0       	rjmp	.+112    	; 0xe2 <__bad_interrupt>
  72:	00 00       	nop
  74:	36 c0       	rjmp	.+108    	; 0xe2 <__bad_interrupt>
  76:	00 00       	nop
  78:	34 c0       	rjmp	.+104    	; 0xe2 <__bad_interrupt>
  7a:	00 00       	nop
  7c:	32 c0       	rjmp	.+100    	; 0xe2 <__bad_interrupt>
  7e:	00 00       	nop
  80:	30 c0       	rjmp	.+96     	; 0xe2 <__bad_interrupt>
  82:	00 00       	nop
  84:	2e c0       	rjmp	.+92     	; 0xe2 <__bad_interrupt>
  86:	00 00       	nop
  88:	2c c0       	rjmp	.+88     	; 0xe2 <__bad_interrupt>
  8a:	00 00       	nop
  8c:	2a c0       	rjmp	.+84     	; 0xe2 <__bad_interrupt>
  8e:	00 00       	nop
  90:	28 c0       	rjmp	.+80     	; 0xe2 <__bad_interrupt>
  92:	00 00       	nop
  94:	26 c0       	rjmp	.+76     	; 0xe2 <__bad_interrupt>
  96:	00 00       	nop
  98:	24 c0       	rjmp	.+72     	; 0xe2 <__bad_interrupt>
  9a:	00 00       	nop
  9c:	22 c0       	rjmp	.+68     	; 0xe2 <__bad_interrupt>
  9e:	00 00       	nop
  a0:	20 c0       	rjmp	.+64     	; 0xe2 <__bad_interrupt>
  a2:	00 00       	nop
  a4:	1e c0       	rjmp	.+60     	; 0xe2 <__bad_interrupt>
  a6:	00 00       	nop
  a8:	1c c0       	rjmp	.+56     	; 0xe2 <__bad_interrupt>
	...

000000ac <__ctors_end>:
  ac:	11 24       	eor	r1, r1
  ae:	1f be       	out	0x3f, r1	; 63
  b0:	cf ef       	ldi	r28, 0xFF	; 255
  b2:	da e0       	ldi	r29, 0x0A	; 10
  b4:	de bf       	out	0x3e, r29	; 62
  b6:	cd bf       	out	0x3d, r28	; 61

000000b8 <__do_copy_data>:
  b8:	11 e0       	ldi	r17, 0x01	; 1
  ba:	a0 e0       	ldi	r26, 0x00	; 0
  bc:	b1 e0       	ldi	r27, 0x01	; 1
  be:	e8 e6       	ldi	r30, 0x68	; 104
  c0:	f9 e0       	ldi	r31, 0x09	; 9
  c2:	02 c0       	rjmp	.+4      	; 0xc8 <__do_copy_data+0x10>
  c4:	05 90       	lpm	r0, Z+
  c6:	0d 92       	st	X+, r0
  c8:	ae 30       	cpi	r26, 0x0E	; 14
  ca:	b1 07       	cpc	r27, r17
  cc:	d9 f7       	brne	.-10     	; 0xc4 <__do_copy_data+0xc>

000000ce <__do_clear_bss>:
  ce:	21 e0       	ldi	r18, 0x01	; 1
  d0:	ae e0       	ldi	r26, 0x0E	; 14
  d2:	b1 e0       	ldi	r27, 0x01	; 1
  d4:	01 c0       	rjmp	.+2      	; 0xd8 <.do_clear_bss_start>

000000d6 <.do_clear_bss_loop>:
  d6:	1d 92       	st	X+, r1

000000d8 <.do_clear_bss_start>:
  d8:	a6 31       	cpi	r26, 0x16	; 22
  da:	b2 07       	cpc	r27, r18
  dc:	e1 f7       	brne	.-8      	; 0xd6 <.do_clear_bss_loop>
  de:	8b d1       	rcall	.+790    	; 0x3f6 <main>
  e0:	41 c4       	rjmp	.+2178   	; 0x964 <_exit>

000000e2 <__bad_interrupt>:
  e2:	8e cf       	rjmp	.-228    	; 0x0 <__vectors>

000000e4 <__vector_23>:
volatile unsigned char sw1,sw2,sw3,sw4;
volatile unsigned char tic_time;

// 8-bit Timer/Counter0 Overflow Interrupt
ISR(TIMER0_OVF_vect)
{
  e4:	1f 92       	push	r1
  e6:	0f 92       	push	r0
  e8:	0f b6       	in	r0, 0x3f	; 63
  ea:	0f 92       	push	r0
  ec:	11 24       	eor	r1, r1
  ee:	8f 93       	push	r24
    tic_time++;
  f0:	80 91 12 01 	lds	r24, 0x0112
  f4:	8f 5f       	subi	r24, 0xFF	; 255
  f6:	80 93 12 01 	sts	0x0112, r24

    TCNT0 = 256 - (CPU_CLOCK / TICKS_PER_SEC / 64);
  fa:	86 e0       	ldi	r24, 0x06	; 6
  fc:	86 bd       	out	0x26, r24	; 38
}
  fe:	8f 91       	pop	r24
 100:	0f 90       	pop	r0
 102:	0f be       	out	0x3f, r0	; 63
 104:	0f 90       	pop	r0
 106:	1f 90       	pop	r1
 108:	18 95       	reti

0000010a <__vector_1>:

// INT0 : External Interrupt
ISR(INT0_vect)
{
 10a:	1f 92       	push	r1
 10c:	0f 92       	push	r0
 10e:	0f b6       	in	r0, 0x3f	; 63
 110:	0f 92       	push	r0
 112:	11 24       	eor	r1, r1
 114:	8f 93       	push	r24
  if (!start)
 116:	80 91 13 01 	lds	r24, 0x0113
 11a:	81 11       	cpse	r24, r1
 11c:	03 c0       	rjmp	.+6      	; 0x124 <__vector_1+0x1a>
    start = 1;
 11e:	81 e0       	ldi	r24, 0x01	; 1
 120:	80 93 13 01 	sts	0x0113, r24

  if (sw1)
 124:	80 91 14 01 	lds	r24, 0x0114
 128:	88 23       	and	r24, r24
 12a:	29 f0       	breq	.+10     	; 0x136 <__vector_1+0x2c>
    cnt++;
 12c:	80 91 10 01 	lds	r24, 0x0110
 130:	8f 5f       	subi	r24, 0xFF	; 255
 132:	80 93 10 01 	sts	0x0110, r24
  // {
  //   cnt = 0;
  //   start = 0;
  //   rand_start = 0;
  // }
}
 136:	8f 91       	pop	r24
 138:	0f 90       	pop	r0
 13a:	0f be       	out	0x3f, r0	; 63
 13c:	0f 90       	pop	r0
 13e:	1f 90       	pop	r1
 140:	18 95       	reti

00000142 <__vector_2>:

// INT1 : External Interrupt
ISR(INT1_vect)
{
 142:	1f 92       	push	r1
 144:	0f 92       	push	r0
 146:	0f b6       	in	r0, 0x3f	; 63
 148:	0f 92       	push	r0
 14a:	11 24       	eor	r1, r1
 14c:	8f 93       	push	r24
  if (!start)
 14e:	80 91 13 01 	lds	r24, 0x0113
 152:	81 11       	cpse	r24, r1
 154:	03 c0       	rjmp	.+6      	; 0x15c <__vector_2+0x1a>
    start = 1;
 156:	81 e0       	ldi	r24, 0x01	; 1
 158:	80 93 13 01 	sts	0x0113, r24

  if (sw2)
 15c:	80 91 15 01 	lds	r24, 0x0115
 160:	88 23       	and	r24, r24
 162:	29 f0       	breq	.+10     	; 0x16e <__vector_2+0x2c>
    cnt++;
 164:	80 91 10 01 	lds	r24, 0x0110
 168:	8f 5f       	subi	r24, 0xFF	; 255
 16a:	80 93 10 01 	sts	0x0110, r24
}
 16e:	8f 91       	pop	r24
 170:	0f 90       	pop	r0
 172:	0f be       	out	0x3f, r0	; 63
 174:	0f 90       	pop	r0
 176:	1f 90       	pop	r1
 178:	18 95       	reti

0000017a <__vector_3>:

// INT2 : External Interrupt
ISR(INT2_vect)
{
 17a:	1f 92       	push	r1
 17c:	0f 92       	push	r0
 17e:	0f b6       	in	r0, 0x3f	; 63
 180:	0f 92       	push	r0
 182:	11 24       	eor	r1, r1
 184:	8f 93       	push	r24
  if (!start)
 186:	80 91 13 01 	lds	r24, 0x0113
 18a:	81 11       	cpse	r24, r1
 18c:	03 c0       	rjmp	.+6      	; 0x194 <__vector_3+0x1a>
    start = 1;
 18e:	81 e0       	ldi	r24, 0x01	; 1
 190:	80 93 13 01 	sts	0x0113, r24

  if (sw3)
 194:	80 91 11 01 	lds	r24, 0x0111
 198:	88 23       	and	r24, r24
 19a:	29 f0       	breq	.+10     	; 0x1a6 <__vector_3+0x2c>
    cnt++;
 19c:	80 91 10 01 	lds	r24, 0x0110
 1a0:	8f 5f       	subi	r24, 0xFF	; 255
 1a2:	80 93 10 01 	sts	0x0110, r24
}
 1a6:	8f 91       	pop	r24
 1a8:	0f 90       	pop	r0
 1aa:	0f be       	out	0x3f, r0	; 63
 1ac:	0f 90       	pop	r0
 1ae:	1f 90       	pop	r1
 1b0:	18 95       	reti

000001b2 <__vector_4>:

// INT3 : External Interrupt
ISR(INT3_vect)
{
 1b2:	1f 92       	push	r1
 1b4:	0f 92       	push	r0
 1b6:	0f b6       	in	r0, 0x3f	; 63
 1b8:	0f 92       	push	r0
 1ba:	11 24       	eor	r1, r1
 1bc:	8f 93       	push	r24
  if (!start)
 1be:	80 91 13 01 	lds	r24, 0x0113
 1c2:	81 11       	cpse	r24, r1
 1c4:	03 c0       	rjmp	.+6      	; 0x1cc <__vector_4+0x1a>
    start = 1;
 1c6:	81 e0       	ldi	r24, 0x01	; 1
 1c8:	80 93 13 01 	sts	0x0113, r24

  if (sw4)
 1cc:	80 91 0e 01 	lds	r24, 0x010E
 1d0:	88 23       	and	r24, r24
 1d2:	29 f0       	breq	.+10     	; 0x1de <__vector_4+0x2c>
    cnt++;
 1d4:	80 91 10 01 	lds	r24, 0x0110
 1d8:	8f 5f       	subi	r24, 0xFF	; 255
 1da:	80 93 10 01 	sts	0x0110, r24
}
 1de:	8f 91       	pop	r24
 1e0:	0f 90       	pop	r0
 1e2:	0f be       	out	0x3f, r0	; 63
 1e4:	0f 90       	pop	r0
 1e6:	1f 90       	pop	r1
 1e8:	18 95       	reti

000001ea <check_led_on>:

// Check LED on
void check_led_on(unsigned int msec, unsigned char state)
{
  switch (state)
 1ea:	65 30       	cpi	r22, 0x05	; 5
 1ec:	79 f0       	breq	.+30     	; 0x20c <check_led_on+0x22>
 1ee:	30 f4       	brcc	.+12     	; 0x1fc <check_led_on+0x12>
 1f0:	64 30       	cpi	r22, 0x04	; 4
 1f2:	99 f4       	brne	.+38     	; 0x21a <check_led_on+0x30>
  {
    case LED0: sw1 = 1;break;
 1f4:	21 e0       	ldi	r18, 0x01	; 1
 1f6:	20 93 14 01 	sts	0x0114, r18
 1fa:	0f c0       	rjmp	.+30     	; 0x21a <check_led_on+0x30>
}

// Check LED on
void check_led_on(unsigned int msec, unsigned char state)
{
  switch (state)
 1fc:	66 30       	cpi	r22, 0x06	; 6
 1fe:	51 f0       	breq	.+20     	; 0x214 <check_led_on+0x2a>
 200:	67 30       	cpi	r22, 0x07	; 7
 202:	59 f4       	brne	.+22     	; 0x21a <check_led_on+0x30>
  {
    case LED0: sw1 = 1;break;
    case LED1: sw2 = 1;break;
    case LED2: sw3 = 1;break;
    case LED3: sw4 = 1;break;
 204:	21 e0       	ldi	r18, 0x01	; 1
 206:	20 93 0e 01 	sts	0x010E, r18
 20a:	07 c0       	rjmp	.+14     	; 0x21a <check_led_on+0x30>
void check_led_on(unsigned int msec, unsigned char state)
{
  switch (state)
  {
    case LED0: sw1 = 1;break;
    case LED1: sw2 = 1;break;
 20c:	21 e0       	ldi	r18, 0x01	; 1
 20e:	20 93 15 01 	sts	0x0115, r18
 212:	03 c0       	rjmp	.+6      	; 0x21a <check_led_on+0x30>
    case LED2: sw3 = 1;break;
 214:	21 e0       	ldi	r18, 0x01	; 1
 216:	20 93 11 01 	sts	0x0111, r18
    case LED3: sw4 = 1;break;
  }
  tic_time = 0;
 21a:	10 92 12 01 	sts	0x0112, r1
  while (msec > tic_time);
 21e:	20 91 12 01 	lds	r18, 0x0112
 222:	30 e0       	ldi	r19, 0x00	; 0
 224:	28 17       	cp	r18, r24
 226:	39 07       	cpc	r19, r25
 228:	d0 f3       	brcs	.-12     	; 0x21e <check_led_on+0x34>
  sw1 = 0;
 22a:	10 92 14 01 	sts	0x0114, r1
  sw2 = 0;
 22e:	10 92 15 01 	sts	0x0115, r1
  sw3 = 0;
 232:	10 92 11 01 	sts	0x0111, r1
  sw4 = 0;
 236:	10 92 0e 01 	sts	0x010E, r1
 23a:	08 95       	ret

0000023c <delay_ms>:
}

void delay_ms(unsigned int msec)
{
  tic_time = 0;
 23c:	10 92 12 01 	sts	0x0112, r1
  while (msec > tic_time);
 240:	20 91 12 01 	lds	r18, 0x0112
 244:	30 e0       	ldi	r19, 0x00	; 0
 246:	28 17       	cp	r18, r24
 248:	39 07       	cpc	r19, r25
 24a:	d0 f3       	brcs	.-12     	; 0x240 <delay_ms+0x4>
}
 24c:	08 95       	ret

0000024e <get_adc_data>:
unsigned int get_adc_data(unsigned char port)
{
    unsigned int adc;

    // Select ADC port
    ADMUX = port|(1<<REFS0);
 24e:	98 2f       	mov	r25, r24
 250:	90 64       	ori	r25, 0x40	; 64
 252:	90 93 7c 00 	sts	0x007C, r25

    // Start ADC Conversion
    ADCSRA |= (1<<ADSC);
 256:	90 91 7a 00 	lds	r25, 0x007A
 25a:	90 64       	ori	r25, 0x40	; 64
 25c:	90 93 7a 00 	sts	0x007A, r25

    // Wait until ADC conversion completed
    while (!(ADCSRA & (1<<ADIF)));
 260:	90 91 7a 00 	lds	r25, 0x007A
 264:	94 ff       	sbrs	r25, 4
 266:	fc cf       	rjmp	.-8      	; 0x260 <get_adc_data+0x12>

    adc = (int)ADCL+((int)ADCH<<8);
 268:	90 91 78 00 	lds	r25, 0x0078
 26c:	60 91 79 00 	lds	r22, 0x0079
 270:	70 e0       	ldi	r23, 0x00	; 0
 272:	76 2f       	mov	r23, r22
 274:	66 27       	eor	r22, r22
 276:	69 0f       	add	r22, r25
 278:	71 1d       	adc	r23, r1

    // Use VR to change LED speed
    if (!port)
 27a:	81 11       	cpse	r24, r1
 27c:	23 c0       	rjmp	.+70     	; 0x2c4 <get_adc_data+0x76>
    {
      adc = (int)(adc/1023.0*3);
 27e:	80 e0       	ldi	r24, 0x00	; 0
 280:	90 e0       	ldi	r25, 0x00	; 0
 282:	cd d1       	rcall	.+922    	; 0x61e <__floatunsisf>
 284:	20 e0       	ldi	r18, 0x00	; 0
 286:	30 ec       	ldi	r19, 0xC0	; 192
 288:	4f e7       	ldi	r20, 0x7F	; 127
 28a:	54 e4       	ldi	r21, 0x44	; 68
 28c:	2f d1       	rcall	.+606    	; 0x4ec <__divsf3>
 28e:	20 e0       	ldi	r18, 0x00	; 0
 290:	30 e0       	ldi	r19, 0x00	; 0
 292:	40 e4       	ldi	r20, 0x40	; 64
 294:	50 e4       	ldi	r21, 0x40	; 64
 296:	51 d2       	rcall	.+1186   	; 0x73a <__mulsf3>
 298:	91 d1       	rcall	.+802    	; 0x5bc <__fixsfsi>
 29a:	61 30       	cpi	r22, 0x01	; 1
 29c:	71 05       	cpc	r23, r1
 29e:	51 f0       	breq	.+20     	; 0x2b4 <get_adc_data+0x66>
 2a0:	78 f0       	brcs	.+30     	; 0x2c0 <get_adc_data+0x72>
      switch (adc)
 2a2:	62 30       	cpi	r22, 0x02	; 2
 2a4:	71 05       	cpc	r23, r1
 2a6:	49 f0       	breq	.+18     	; 0x2ba <get_adc_data+0x6c>
 2a8:	63 30       	cpi	r22, 0x03	; 3
 2aa:	71 05       	cpc	r23, r1
 2ac:	59 f4       	brne	.+22     	; 0x2c4 <get_adc_data+0x76>
 2ae:	6a ef       	ldi	r22, 0xFA	; 250
 2b0:	70 e0       	ldi	r23, 0x00	; 0
 2b2:	08 c0       	rjmp	.+16     	; 0x2c4 <get_adc_data+0x76>
 2b4:	66 e9       	ldi	r22, 0x96	; 150
      {
        case 0: adc = 100;break;
        case 1: adc = 150;break;
        case 2: adc = 200;break;
        case 3: adc = 250;break;
 2b6:	70 e0       	ldi	r23, 0x00	; 0
 2b8:	05 c0       	rjmp	.+10     	; 0x2c4 <get_adc_data+0x76>
 2ba:	68 ec       	ldi	r22, 0xC8	; 200
    {
      adc = (int)(adc/1023.0*3);
      switch (adc)
      {
        case 0: adc = 100;break;
        case 1: adc = 150;break;
 2bc:	70 e0       	ldi	r23, 0x00	; 0
 2be:	02 c0       	rjmp	.+4      	; 0x2c4 <get_adc_data+0x76>
 2c0:	64 e6       	ldi	r22, 0x64	; 100
        case 2: adc = 200;break;
 2c2:	70 e0       	ldi	r23, 0x00	; 0
 2c4:	cb 01       	movw	r24, r22
 2c6:	08 95       	ret

000002c8 <display_led_randomly>:
    return adc;
}

// Display LED
void display_led_randomly(unsigned int msec)
{
 2c8:	0f 93       	push	r16
 2ca:	1f 93       	push	r17
 2cc:	cf 93       	push	r28
 2ce:	df 93       	push	r29
 2d0:	8c 01       	movw	r16, r24
  unsigned char random,led,state;

  // Return random number in 4,5,6,7
  random = rand()%4+4;
 2d2:	dd d2       	rcall	.+1466   	; 0x88e <rand>
 2d4:	64 e0       	ldi	r22, 0x04	; 4
 2d6:	70 e0       	ldi	r23, 0x00	; 0
 2d8:	c6 d0       	rcall	.+396    	; 0x466 <__divmodhi4>
 2da:	94 e0       	ldi	r25, 0x04	; 4
 2dc:	98 0f       	add	r25, r24
 2de:	95 30       	cpi	r25, 0x05	; 5
 2e0:	69 f0       	breq	.+26     	; 0x2fc <display_led_randomly+0x34>

  // Display LED randomly
  switch (random)
 2e2:	28 f4       	brcc	.+10     	; 0x2ee <display_led_randomly+0x26>
 2e4:	94 30       	cpi	r25, 0x04	; 4
 2e6:	79 f4       	brne	.+30     	; 0x306 <display_led_randomly+0x3e>
 2e8:	d4 e0       	ldi	r29, 0x04	; 4
 2ea:	c0 e1       	ldi	r28, 0x10	; 16
  {
    case LED0 : led = 0x10; state = 4;break;
 2ec:	0c c0       	rjmp	.+24     	; 0x306 <display_led_randomly+0x3e>
 2ee:	96 30       	cpi	r25, 0x06	; 6
 2f0:	41 f0       	breq	.+16     	; 0x302 <display_led_randomly+0x3a>

  // Return random number in 4,5,6,7
  random = rand()%4+4;

  // Display LED randomly
  switch (random)
 2f2:	97 30       	cpi	r25, 0x07	; 7
 2f4:	41 f4       	brne	.+16     	; 0x306 <display_led_randomly+0x3e>
 2f6:	d7 e0       	ldi	r29, 0x07	; 7
 2f8:	c0 e8       	ldi	r28, 0x80	; 128
  {
    case LED0 : led = 0x10; state = 4;break;
    case LED1 : led = 0x20; state = 5;break;
    case LED2 : led = 0x40; state = 6;break;
    case LED3 : led = 0x80; state = 7;break;
 2fa:	05 c0       	rjmp	.+10     	; 0x306 <display_led_randomly+0x3e>
 2fc:	d5 e0       	ldi	r29, 0x05	; 5
 2fe:	c0 e2       	ldi	r28, 0x20	; 32

  // Display LED randomly
  switch (random)
  {
    case LED0 : led = 0x10; state = 4;break;
    case LED1 : led = 0x20; state = 5;break;
 300:	02 c0       	rjmp	.+4      	; 0x306 <display_led_randomly+0x3e>
 302:	d6 e0       	ldi	r29, 0x06	; 6
 304:	c0 e4       	ldi	r28, 0x40	; 64
    case LED2 : led = 0x40; state = 6;break;
 306:	c0 95       	com	r28
 308:	c5 b9       	out	0x05, r28	; 5
    case LED3 : led = 0x80; state = 7;break;
  }

  PORT_LED = ~led;
 30a:	6d 2f       	mov	r22, r29
 30c:	c8 01       	movw	r24, r16
  check_led_on(msec,state);
 30e:	6d df       	rcall	.-294    	; 0x1ea <check_led_on>
 310:	8f ef       	ldi	r24, 0xFF	; 255
 312:	85 b9       	out	0x05, r24	; 5
 314:	c8 01       	movw	r24, r16

  PORT_LED = 0xFF;
 316:	96 95       	lsr	r25
 318:	87 95       	ror	r24
  delay_ms(msec/2);
 31a:	90 df       	rcall	.-224    	; 0x23c <delay_ms>
 31c:	df 91       	pop	r29
 31e:	cf 91       	pop	r28
 320:	1f 91       	pop	r17
 322:	0f 91       	pop	r16
}
 324:	08 95       	ret

00000326 <game_clear>:

// Game Clear Performance
void game_clear(void)
{
 326:	83 e0       	ldi	r24, 0x03	; 3
 328:	90 e0       	ldi	r25, 0x00	; 0

  for (i=0;i<3;i++)
  {
    PORT_LED = 0x00;
    _delay_ms(300);
    PORT_LED = 0xFF;
 32a:	2f ef       	ldi	r18, 0xFF	; 255
  int i;
  unsigned char game_clear_led;

  for (i=0;i<3;i++)
  {
    PORT_LED = 0x00;
 32c:	15 b8       	out	0x05, r1	; 5
	#else
		//round up by default
		__ticks_dc = (uint32_t)(ceil(fabs(__tmp)));
	#endif

	__builtin_avr_delay_cycles(__ticks_dc);
 32e:	3f ef       	ldi	r19, 0xFF	; 255
 330:	45 ea       	ldi	r20, 0xA5	; 165
 332:	5e e0       	ldi	r21, 0x0E	; 14
 334:	31 50       	subi	r19, 0x01	; 1
 336:	40 40       	sbci	r20, 0x00	; 0
 338:	50 40       	sbci	r21, 0x00	; 0
 33a:	e1 f7       	brne	.-8      	; 0x334 <game_clear+0xe>
 33c:	00 c0       	rjmp	.+0      	; 0x33e <game_clear+0x18>
 33e:	00 00       	nop
    _delay_ms(300);
    PORT_LED = 0xFF;
 340:	25 b9       	out	0x05, r18	; 5
 342:	3f ef       	ldi	r19, 0xFF	; 255
 344:	45 ea       	ldi	r20, 0xA5	; 165
 346:	5e e0       	ldi	r21, 0x0E	; 14
 348:	31 50       	subi	r19, 0x01	; 1
 34a:	40 40       	sbci	r20, 0x00	; 0
 34c:	50 40       	sbci	r21, 0x00	; 0
 34e:	e1 f7       	brne	.-8      	; 0x348 <game_clear+0x22>
 350:	00 c0       	rjmp	.+0      	; 0x352 <game_clear+0x2c>
 352:	00 00       	nop
 354:	01 97       	sbiw	r24, 0x01	; 1
void game_clear(void)
{
  int i;
  unsigned char game_clear_led;

  for (i=0;i<3;i++)
 356:	51 f7       	brne	.-44     	; 0x32c <game_clear+0x6>
    PORT_LED = 0x00;
    _delay_ms(300);
    PORT_LED = 0xFF;
    _delay_ms(300);
  }
  PORT_LED = 0xFF;
 358:	8f ef       	ldi	r24, 0xFF	; 255
 35a:	85 b9       	out	0x05, r24	; 5
 35c:	24 e0       	ldi	r18, 0x04	; 4
 35e:	30 e0       	ldi	r19, 0x00	; 0
  game_clear_led = ~(0x08);
 360:	87 ef       	ldi	r24, 0xF7	; 247
  for (i=0;i<4;i++)
  {
    game_clear_led = game_clear_led << 1;
 362:	88 0f       	add	r24, r24
    PORT_LED = game_clear_led;
 364:	85 b9       	out	0x05, r24	; 5
 366:	9f ef       	ldi	r25, 0xFF	; 255
 368:	45 ea       	ldi	r20, 0xA5	; 165
 36a:	5e e0       	ldi	r21, 0x0E	; 14
 36c:	91 50       	subi	r25, 0x01	; 1
 36e:	40 40       	sbci	r20, 0x00	; 0
 370:	50 40       	sbci	r21, 0x00	; 0
 372:	e1 f7       	brne	.-8      	; 0x36c <game_clear+0x46>
 374:	00 c0       	rjmp	.+0      	; 0x376 <game_clear+0x50>
 376:	00 00       	nop
 378:	21 50       	subi	r18, 0x01	; 1
 37a:	31 09       	sbc	r19, r1
    PORT_LED = 0xFF;
    _delay_ms(300);
  }
  PORT_LED = 0xFF;
  game_clear_led = ~(0x08);
  for (i=0;i<4;i++)
 37c:	91 f7       	brne	.-28     	; 0x362 <game_clear+0x3c>
 37e:	24 e0       	ldi	r18, 0x04	; 4
 380:	30 e0       	ldi	r19, 0x00	; 0
    PORT_LED = game_clear_led;
    _delay_ms(300);
  }
  for (i=0;i<4;i++)
  {
    PORT_LED = game_clear_led;
 382:	85 b9       	out	0x05, r24	; 5
    game_clear_led = game_clear_led >> 1;
 384:	86 95       	lsr	r24
    game_clear_led |= 0x80;
 386:	80 68       	ori	r24, 0x80	; 128
 388:	9f ef       	ldi	r25, 0xFF	; 255
 38a:	45 ea       	ldi	r20, 0xA5	; 165
 38c:	5e e0       	ldi	r21, 0x0E	; 14
 38e:	91 50       	subi	r25, 0x01	; 1
 390:	40 40       	sbci	r20, 0x00	; 0
 392:	50 40       	sbci	r21, 0x00	; 0
 394:	e1 f7       	brne	.-8      	; 0x38e <game_clear+0x68>
 396:	00 c0       	rjmp	.+0      	; 0x398 <game_clear+0x72>
 398:	00 00       	nop
 39a:	21 50       	subi	r18, 0x01	; 1
 39c:	31 09       	sbc	r19, r1
  {
    game_clear_led = game_clear_led << 1;
    PORT_LED = game_clear_led;
    _delay_ms(300);
  }
  for (i=0;i<4;i++)
 39e:	89 f7       	brne	.-30     	; 0x382 <game_clear+0x5c>
    PORT_LED = game_clear_led;
    game_clear_led = game_clear_led >> 1;
    game_clear_led |= 0x80;
    _delay_ms(300);
  }
  cnt = 0;
 3a0:	10 92 10 01 	sts	0x0110, r1
  start = 0;
 3a4:	10 92 13 01 	sts	0x0113, r1
  rand_start = 0;
 3a8:	10 92 0f 01 	sts	0x010F, r1
 3ac:	08 95       	ret

000003ae <init_gpio>:
}

// GPIO Init
void init_gpio(void)
{
  DDR_FND |= (1<<PORT4)|(1<<PORT5)|(1<<PORT6)|(1<<PORT7);
 3ae:	80 b3       	in	r24, 0x10	; 16
 3b0:	80 6f       	ori	r24, 0xF0	; 240
 3b2:	80 bb       	out	0x10, r24	; 16
  DDR_LED |= (1<<PORT4)|(1<<PORT5)|(1<<PORT6)|(1<<PORT7);
 3b4:	84 b1       	in	r24, 0x04	; 4
 3b6:	80 6f       	ori	r24, 0xF0	; 240
 3b8:	84 b9       	out	0x04, r24	; 4
 3ba:	08 95       	ret

000003bc <init_adc>:

// ADC Init
void init_adc(void)
{
  // AVCC with external capacitor on AREF pin
  ADMUX |= (0<<REFS1)|(1<<REFS0);
 3bc:	ec e7       	ldi	r30, 0x7C	; 124
 3be:	f0 e0       	ldi	r31, 0x00	; 0
 3c0:	80 81       	ld	r24, Z
 3c2:	80 64       	ori	r24, 0x40	; 64
 3c4:	80 83       	st	Z, r24
  // PF1 - CDS
  ADMUX |= (0<<MUX4)|(0<<MUX3)|(0<<MUX2)|(0<<MUX1)|(1<<MUX0);
 3c6:	80 81       	ld	r24, Z
 3c8:	81 60       	ori	r24, 0x01	; 1
 3ca:	80 83       	st	Z, r24
  // Enable ADC, Division factor = 128 (= 125kHz) : 50kHz < 125kHz < 200kHz
  ADCSRA |= (1<<ADEN)|(1<<ADPS2)|(1<<ADPS1)|(1<<ADPS0);
 3cc:	ea e7       	ldi	r30, 0x7A	; 122
 3ce:	f0 e0       	ldi	r31, 0x00	; 0
 3d0:	80 81       	ld	r24, Z
 3d2:	87 68       	ori	r24, 0x87	; 135
 3d4:	80 83       	st	Z, r24
 3d6:	08 95       	ret

000003d8 <init_trigger>:
}

void init_trigger(void)
{
  // Falling edge
  EICRA = (1<<ISC01)|(0<<ISC00)|(1<<ISC11)|(0<<ISC10)|(1<<ISC21)|(0<<ISC20)|(1<<ISC31)|(0<<ISC30);
 3d8:	8a ea       	ldi	r24, 0xAA	; 170
 3da:	80 93 69 00 	sts	0x0069, r24
  EIMSK = (1<<INT0)|(1<<INT1)|(1<<INT2)|(1<<INT3);
 3de:	8f e0       	ldi	r24, 0x0F	; 15
 3e0:	8d bb       	out	0x1d, r24	; 29
 3e2:	08 95       	ret

000003e4 <init_timer>:

// Timer/Counter Init
void init_timer()
{
  // Waveform Generation Mode : Normal mode, Clock : clk/64 (prescaler)
  TCCR0B = (0<<WGM02)|(0<<CS02)|(1<<CS01)|(1<<CS00);
 3e4:	83 e0       	ldi	r24, 0x03	; 3
 3e6:	85 bd       	out	0x25, r24	; 37
  TCCR0A = (0<<WGM01)|(0<<WGM00);
 3e8:	14 bc       	out	0x24, r1	; 36
  TCNT0 = 256 - (CPU_CLOCK / TICKS_PER_SEC / 64);
 3ea:	86 e0       	ldi	r24, 0x06	; 6
 3ec:	86 bd       	out	0x26, r24	; 38
  // Timer/Counter0 Overflow Interrupt : Enable
  TIMSK0 = (0<<OCIE0B)|(0<<OCIE0A)|(1<<TOIE0);
 3ee:	81 e0       	ldi	r24, 0x01	; 1
 3f0:	80 93 6e 00 	sts	0x006E, r24
 3f4:	08 95       	ret

000003f6 <main>:
}

int main(void)
{
 3f6:	aa e0       	ldi	r26, 0x0A	; 10
 3f8:	b0 e0       	ldi	r27, 0x00	; 0
 3fa:	e0 e0       	ldi	r30, 0x00	; 0
 3fc:	f2 e0       	ldi	r31, 0x02	; 2
 3fe:	56 c0       	rjmp	.+172    	; 0x4ac <__prologue_saves__+0x20>
 400:	8a e0       	ldi	r24, 0x0A	; 10
  unsigned char fnd_num[10] = {0x0F,0x1F,0x2F,0x3F,0x4F,0x5F,0x6F,0x7F,0x8F,0x9F};
 402:	e4 e0       	ldi	r30, 0x04	; 4
 404:	f1 e0       	ldi	r31, 0x01	; 1
 406:	de 01       	movw	r26, r28
 408:	11 96       	adiw	r26, 0x01	; 1
 40a:	01 90       	ld	r0, Z+
 40c:	0d 92       	st	X+, r0
 40e:	8a 95       	dec	r24
 410:	e1 f7       	brne	.-8      	; 0x40a <main+0x14>
 412:	cd df       	rcall	.-102    	; 0x3ae <init_gpio>

  // ---- GPIO ----
  init_gpio();
 414:	e7 df       	rcall	.-50     	; 0x3e4 <init_timer>
 416:	e0 df       	rcall	.-64     	; 0x3d8 <init_trigger>

  // ---- Timer/Counter0 ----
  init_timer();
 418:	d1 df       	rcall	.-94     	; 0x3bc <init_adc>
 41a:	78 94       	sei

  // ---- External Interrupt ----
  init_trigger();
 41c:	8f ef       	ldi	r24, 0xFF	; 255
 41e:	85 b9       	out	0x05, r24	; 5

  // ---- Analog to Digital Converter ----
  init_adc();
 420:	89 81       	ldd	r24, Y+1	; 0x01
 422:	81 bb       	out	0x11, r24	; 17

  // ---- Global Interrupt : Enable ----
  sei();
 424:	80 91 13 01 	lds	r24, 0x0113

  // Turn off all LED
  PORT_LED = 0xFF;
 428:	88 23       	and	r24, r24
  PORT_FND = fnd_num[0];
 42a:	e1 f3       	breq	.-8      	; 0x424 <main+0x2e>
 42c:	80 91 0f 01 	lds	r24, 0x010F

  for (;;)
  {
    if (start)
 430:	81 11       	cpse	r24, r1
 432:	06 c0       	rjmp	.+12     	; 0x440 <main+0x4a>
 434:	81 e0       	ldi	r24, 0x01	; 1
    {
      // Set for random without duplication
      if (!rand_start)
 436:	0b df       	rcall	.-490    	; 0x24e <get_adc_data>
 438:	2d d2       	rcall	.+1114   	; 0x894 <srand>
 43a:	81 e0       	ldi	r24, 0x01	; 1
 43c:	80 93 0f 01 	sts	0x010F, r24
      {
        srand(get_adc_data(ADC_CDS));
 440:	80 e0       	ldi	r24, 0x00	; 0
 442:	05 df       	rcall	.-502    	; 0x24e <get_adc_data>
 444:	41 df       	rcall	.-382    	; 0x2c8 <display_led_randomly>
 446:	80 91 10 01 	lds	r24, 0x0110
        rand_start = 1;
 44a:	e1 e0       	ldi	r30, 0x01	; 1
 44c:	f0 e0       	ldi	r31, 0x00	; 0
      }

      // Get LED speed from VR
      display_led_randomly(get_adc_data(ADC_VR));
 44e:	ec 0f       	add	r30, r28
 450:	fd 1f       	adc	r31, r29
 452:	e8 0f       	add	r30, r24
 454:	f1 1d       	adc	r31, r1
 456:	80 81       	ld	r24, Z
      PORT_FND = fnd_num[cnt];
 458:	81 bb       	out	0x11, r24	; 17
 45a:	80 91 10 01 	lds	r24, 0x0110
 45e:	89 30       	cpi	r24, 0x09	; 9
 460:	09 f7       	brne	.-62     	; 0x424 <main+0x2e>
 462:	61 df       	rcall	.-318    	; 0x326 <game_clear>
 464:	df cf       	rjmp	.-66     	; 0x424 <main+0x2e>

00000466 <__divmodhi4>:
 466:	97 fb       	bst	r25, 7
 468:	07 2e       	mov	r0, r23
 46a:	16 f4       	brtc	.+4      	; 0x470 <__divmodhi4+0xa>

      if (cnt == 9)
 46c:	00 94       	com	r0
 46e:	06 d0       	rcall	.+12     	; 0x47c <__divmodhi4_neg1>
 470:	77 fd       	sbrc	r23, 7
 472:	08 d0       	rcall	.+16     	; 0x484 <__divmodhi4_neg2>
        game_clear();
 474:	27 d0       	rcall	.+78     	; 0x4c4 <__udivmodhi4>
 476:	07 fc       	sbrc	r0, 7
 478:	05 d0       	rcall	.+10     	; 0x484 <__divmodhi4_neg2>
 47a:	3e f4       	brtc	.+14     	; 0x48a <__divmodhi4_exit>

0000047c <__divmodhi4_neg1>:
 47c:	90 95       	com	r25
 47e:	81 95       	neg	r24
 480:	9f 4f       	sbci	r25, 0xFF	; 255
 482:	08 95       	ret

00000484 <__divmodhi4_neg2>:
 484:	70 95       	com	r23
 486:	61 95       	neg	r22
 488:	7f 4f       	sbci	r23, 0xFF	; 255

0000048a <__divmodhi4_exit>:
 48a:	08 95       	ret

0000048c <__prologue_saves__>:
 48c:	2f 92       	push	r2
 48e:	3f 92       	push	r3
 490:	4f 92       	push	r4
 492:	5f 92       	push	r5
 494:	6f 92       	push	r6
 496:	7f 92       	push	r7
 498:	8f 92       	push	r8
 49a:	9f 92       	push	r9
 49c:	af 92       	push	r10
 49e:	bf 92       	push	r11
 4a0:	cf 92       	push	r12
 4a2:	df 92       	push	r13
 4a4:	ef 92       	push	r14
 4a6:	ff 92       	push	r15
 4a8:	0f 93       	push	r16
 4aa:	1f 93       	push	r17
 4ac:	cf 93       	push	r28
 4ae:	df 93       	push	r29
 4b0:	cd b7       	in	r28, 0x3d	; 61
 4b2:	de b7       	in	r29, 0x3e	; 62
 4b4:	ca 1b       	sub	r28, r26
 4b6:	db 0b       	sbc	r29, r27
 4b8:	0f b6       	in	r0, 0x3f	; 63
 4ba:	f8 94       	cli
 4bc:	de bf       	out	0x3e, r29	; 62
 4be:	0f be       	out	0x3f, r0	; 63
 4c0:	cd bf       	out	0x3d, r28	; 61
 4c2:	09 94       	ijmp

000004c4 <__udivmodhi4>:
 4c4:	aa 1b       	sub	r26, r26
 4c6:	bb 1b       	sub	r27, r27
 4c8:	51 e1       	ldi	r21, 0x11	; 17
 4ca:	07 c0       	rjmp	.+14     	; 0x4da <__udivmodhi4_ep>

000004cc <__udivmodhi4_loop>:
 4cc:	aa 1f       	adc	r26, r26
 4ce:	bb 1f       	adc	r27, r27
 4d0:	a6 17       	cp	r26, r22
 4d2:	b7 07       	cpc	r27, r23
 4d4:	10 f0       	brcs	.+4      	; 0x4da <__udivmodhi4_ep>
 4d6:	a6 1b       	sub	r26, r22
 4d8:	b7 0b       	sbc	r27, r23

000004da <__udivmodhi4_ep>:
 4da:	88 1f       	adc	r24, r24
 4dc:	99 1f       	adc	r25, r25
 4de:	5a 95       	dec	r21
 4e0:	a9 f7       	brne	.-22     	; 0x4cc <__udivmodhi4_loop>
 4e2:	80 95       	com	r24
 4e4:	90 95       	com	r25
 4e6:	bc 01       	movw	r22, r24
 4e8:	cd 01       	movw	r24, r26
 4ea:	08 95       	ret

000004ec <__divsf3>:
 4ec:	0c d0       	rcall	.+24     	; 0x506 <__divsf3x>
 4ee:	eb c0       	rjmp	.+470    	; 0x6c6 <__fp_round>
 4f0:	e3 d0       	rcall	.+454    	; 0x6b8 <__fp_pscB>
 4f2:	40 f0       	brcs	.+16     	; 0x504 <__divsf3+0x18>
 4f4:	da d0       	rcall	.+436    	; 0x6aa <__fp_pscA>
 4f6:	30 f0       	brcs	.+12     	; 0x504 <__divsf3+0x18>
 4f8:	21 f4       	brne	.+8      	; 0x502 <__divsf3+0x16>
 4fa:	5f 3f       	cpi	r21, 0xFF	; 255
 4fc:	19 f0       	breq	.+6      	; 0x504 <__divsf3+0x18>
 4fe:	cc c0       	rjmp	.+408    	; 0x698 <__fp_inf>
 500:	51 11       	cpse	r21, r1
 502:	15 c1       	rjmp	.+554    	; 0x72e <__fp_szero>
 504:	cf c0       	rjmp	.+414    	; 0x6a4 <__fp_nan>

00000506 <__divsf3x>:
 506:	f0 d0       	rcall	.+480    	; 0x6e8 <__fp_split3>
 508:	98 f3       	brcs	.-26     	; 0x4f0 <__divsf3+0x4>

0000050a <__divsf3_pse>:
 50a:	99 23       	and	r25, r25
 50c:	c9 f3       	breq	.-14     	; 0x500 <__divsf3+0x14>
 50e:	55 23       	and	r21, r21
 510:	b1 f3       	breq	.-20     	; 0x4fe <__divsf3+0x12>
 512:	95 1b       	sub	r25, r21
 514:	55 0b       	sbc	r21, r21
 516:	bb 27       	eor	r27, r27
 518:	aa 27       	eor	r26, r26
 51a:	62 17       	cp	r22, r18
 51c:	73 07       	cpc	r23, r19
 51e:	84 07       	cpc	r24, r20
 520:	38 f0       	brcs	.+14     	; 0x530 <__divsf3_pse+0x26>
 522:	9f 5f       	subi	r25, 0xFF	; 255
 524:	5f 4f       	sbci	r21, 0xFF	; 255
 526:	22 0f       	add	r18, r18
 528:	33 1f       	adc	r19, r19
 52a:	44 1f       	adc	r20, r20
 52c:	aa 1f       	adc	r26, r26
 52e:	a9 f3       	breq	.-22     	; 0x51a <__divsf3_pse+0x10>
 530:	33 d0       	rcall	.+102    	; 0x598 <__divsf3_pse+0x8e>
 532:	0e 2e       	mov	r0, r30
 534:	3a f0       	brmi	.+14     	; 0x544 <__divsf3_pse+0x3a>
 536:	e0 e8       	ldi	r30, 0x80	; 128
 538:	30 d0       	rcall	.+96     	; 0x59a <__divsf3_pse+0x90>
 53a:	91 50       	subi	r25, 0x01	; 1
 53c:	50 40       	sbci	r21, 0x00	; 0
 53e:	e6 95       	lsr	r30
 540:	00 1c       	adc	r0, r0
 542:	ca f7       	brpl	.-14     	; 0x536 <__divsf3_pse+0x2c>
 544:	29 d0       	rcall	.+82     	; 0x598 <__divsf3_pse+0x8e>
 546:	fe 2f       	mov	r31, r30
 548:	27 d0       	rcall	.+78     	; 0x598 <__divsf3_pse+0x8e>
 54a:	66 0f       	add	r22, r22
 54c:	77 1f       	adc	r23, r23
 54e:	88 1f       	adc	r24, r24
 550:	bb 1f       	adc	r27, r27
 552:	26 17       	cp	r18, r22
 554:	37 07       	cpc	r19, r23
 556:	48 07       	cpc	r20, r24
 558:	ab 07       	cpc	r26, r27
 55a:	b0 e8       	ldi	r27, 0x80	; 128
 55c:	09 f0       	breq	.+2      	; 0x560 <__divsf3_pse+0x56>
 55e:	bb 0b       	sbc	r27, r27
 560:	80 2d       	mov	r24, r0
 562:	bf 01       	movw	r22, r30
 564:	ff 27       	eor	r31, r31
 566:	93 58       	subi	r25, 0x83	; 131
 568:	5f 4f       	sbci	r21, 0xFF	; 255
 56a:	2a f0       	brmi	.+10     	; 0x576 <__divsf3_pse+0x6c>
 56c:	9e 3f       	cpi	r25, 0xFE	; 254
 56e:	51 05       	cpc	r21, r1
 570:	68 f0       	brcs	.+26     	; 0x58c <__divsf3_pse+0x82>
 572:	92 c0       	rjmp	.+292    	; 0x698 <__fp_inf>
 574:	dc c0       	rjmp	.+440    	; 0x72e <__fp_szero>
 576:	5f 3f       	cpi	r21, 0xFF	; 255
 578:	ec f3       	brlt	.-6      	; 0x574 <__divsf3_pse+0x6a>
 57a:	98 3e       	cpi	r25, 0xE8	; 232
 57c:	dc f3       	brlt	.-10     	; 0x574 <__divsf3_pse+0x6a>
 57e:	86 95       	lsr	r24
 580:	77 95       	ror	r23
 582:	67 95       	ror	r22
 584:	b7 95       	ror	r27
 586:	f7 95       	ror	r31
 588:	9f 5f       	subi	r25, 0xFF	; 255
 58a:	c9 f7       	brne	.-14     	; 0x57e <__divsf3_pse+0x74>
 58c:	88 0f       	add	r24, r24
 58e:	91 1d       	adc	r25, r1
 590:	96 95       	lsr	r25
 592:	87 95       	ror	r24
 594:	97 f9       	bld	r25, 7
 596:	08 95       	ret
 598:	e1 e0       	ldi	r30, 0x01	; 1
 59a:	66 0f       	add	r22, r22
 59c:	77 1f       	adc	r23, r23
 59e:	88 1f       	adc	r24, r24
 5a0:	bb 1f       	adc	r27, r27
 5a2:	62 17       	cp	r22, r18
 5a4:	73 07       	cpc	r23, r19
 5a6:	84 07       	cpc	r24, r20
 5a8:	ba 07       	cpc	r27, r26
 5aa:	20 f0       	brcs	.+8      	; 0x5b4 <__divsf3_pse+0xaa>
 5ac:	62 1b       	sub	r22, r18
 5ae:	73 0b       	sbc	r23, r19
 5b0:	84 0b       	sbc	r24, r20
 5b2:	ba 0b       	sbc	r27, r26
 5b4:	ee 1f       	adc	r30, r30
 5b6:	88 f7       	brcc	.-30     	; 0x59a <__divsf3_pse+0x90>
 5b8:	e0 95       	com	r30
 5ba:	08 95       	ret

000005bc <__fixsfsi>:
 5bc:	04 d0       	rcall	.+8      	; 0x5c6 <__fixunssfsi>
 5be:	68 94       	set
 5c0:	b1 11       	cpse	r27, r1
 5c2:	b5 c0       	rjmp	.+362    	; 0x72e <__fp_szero>
 5c4:	08 95       	ret

000005c6 <__fixunssfsi>:
 5c6:	98 d0       	rcall	.+304    	; 0x6f8 <__fp_splitA>
 5c8:	88 f0       	brcs	.+34     	; 0x5ec <__fixunssfsi+0x26>
 5ca:	9f 57       	subi	r25, 0x7F	; 127
 5cc:	90 f0       	brcs	.+36     	; 0x5f2 <__fixunssfsi+0x2c>
 5ce:	b9 2f       	mov	r27, r25
 5d0:	99 27       	eor	r25, r25
 5d2:	b7 51       	subi	r27, 0x17	; 23
 5d4:	a0 f0       	brcs	.+40     	; 0x5fe <__fixunssfsi+0x38>
 5d6:	d1 f0       	breq	.+52     	; 0x60c <__fixunssfsi+0x46>
 5d8:	66 0f       	add	r22, r22
 5da:	77 1f       	adc	r23, r23
 5dc:	88 1f       	adc	r24, r24
 5de:	99 1f       	adc	r25, r25
 5e0:	1a f0       	brmi	.+6      	; 0x5e8 <__fixunssfsi+0x22>
 5e2:	ba 95       	dec	r27
 5e4:	c9 f7       	brne	.-14     	; 0x5d8 <__fixunssfsi+0x12>
 5e6:	12 c0       	rjmp	.+36     	; 0x60c <__fixunssfsi+0x46>
 5e8:	b1 30       	cpi	r27, 0x01	; 1
 5ea:	81 f0       	breq	.+32     	; 0x60c <__fixunssfsi+0x46>
 5ec:	9f d0       	rcall	.+318    	; 0x72c <__fp_zero>
 5ee:	b1 e0       	ldi	r27, 0x01	; 1
 5f0:	08 95       	ret
 5f2:	9c c0       	rjmp	.+312    	; 0x72c <__fp_zero>
 5f4:	67 2f       	mov	r22, r23
 5f6:	78 2f       	mov	r23, r24
 5f8:	88 27       	eor	r24, r24
 5fa:	b8 5f       	subi	r27, 0xF8	; 248
 5fc:	39 f0       	breq	.+14     	; 0x60c <__fixunssfsi+0x46>
 5fe:	b9 3f       	cpi	r27, 0xF9	; 249
 600:	cc f3       	brlt	.-14     	; 0x5f4 <__fixunssfsi+0x2e>
 602:	86 95       	lsr	r24
 604:	77 95       	ror	r23
 606:	67 95       	ror	r22
 608:	b3 95       	inc	r27
 60a:	d9 f7       	brne	.-10     	; 0x602 <__fixunssfsi+0x3c>
 60c:	3e f4       	brtc	.+14     	; 0x61c <__fixunssfsi+0x56>
 60e:	90 95       	com	r25
 610:	80 95       	com	r24
 612:	70 95       	com	r23
 614:	61 95       	neg	r22
 616:	7f 4f       	sbci	r23, 0xFF	; 255
 618:	8f 4f       	sbci	r24, 0xFF	; 255
 61a:	9f 4f       	sbci	r25, 0xFF	; 255
 61c:	08 95       	ret

0000061e <__floatunsisf>:
 61e:	e8 94       	clt
 620:	09 c0       	rjmp	.+18     	; 0x634 <__floatsisf+0x12>

00000622 <__floatsisf>:
 622:	97 fb       	bst	r25, 7
 624:	3e f4       	brtc	.+14     	; 0x634 <__floatsisf+0x12>
 626:	90 95       	com	r25
 628:	80 95       	com	r24
 62a:	70 95       	com	r23
 62c:	61 95       	neg	r22
 62e:	7f 4f       	sbci	r23, 0xFF	; 255
 630:	8f 4f       	sbci	r24, 0xFF	; 255
 632:	9f 4f       	sbci	r25, 0xFF	; 255
 634:	99 23       	and	r25, r25
 636:	a9 f0       	breq	.+42     	; 0x662 <__floatsisf+0x40>
 638:	f9 2f       	mov	r31, r25
 63a:	96 e9       	ldi	r25, 0x96	; 150
 63c:	bb 27       	eor	r27, r27
 63e:	93 95       	inc	r25
 640:	f6 95       	lsr	r31
 642:	87 95       	ror	r24
 644:	77 95       	ror	r23
 646:	67 95       	ror	r22
 648:	b7 95       	ror	r27
 64a:	f1 11       	cpse	r31, r1
 64c:	f8 cf       	rjmp	.-16     	; 0x63e <__floatsisf+0x1c>
 64e:	fa f4       	brpl	.+62     	; 0x68e <__floatsisf+0x6c>
 650:	bb 0f       	add	r27, r27
 652:	11 f4       	brne	.+4      	; 0x658 <__floatsisf+0x36>
 654:	60 ff       	sbrs	r22, 0
 656:	1b c0       	rjmp	.+54     	; 0x68e <__floatsisf+0x6c>
 658:	6f 5f       	subi	r22, 0xFF	; 255
 65a:	7f 4f       	sbci	r23, 0xFF	; 255
 65c:	8f 4f       	sbci	r24, 0xFF	; 255
 65e:	9f 4f       	sbci	r25, 0xFF	; 255
 660:	16 c0       	rjmp	.+44     	; 0x68e <__floatsisf+0x6c>
 662:	88 23       	and	r24, r24
 664:	11 f0       	breq	.+4      	; 0x66a <__floatsisf+0x48>
 666:	96 e9       	ldi	r25, 0x96	; 150
 668:	11 c0       	rjmp	.+34     	; 0x68c <__floatsisf+0x6a>
 66a:	77 23       	and	r23, r23
 66c:	21 f0       	breq	.+8      	; 0x676 <__floatsisf+0x54>
 66e:	9e e8       	ldi	r25, 0x8E	; 142
 670:	87 2f       	mov	r24, r23
 672:	76 2f       	mov	r23, r22
 674:	05 c0       	rjmp	.+10     	; 0x680 <__floatsisf+0x5e>
 676:	66 23       	and	r22, r22
 678:	71 f0       	breq	.+28     	; 0x696 <__floatsisf+0x74>
 67a:	96 e8       	ldi	r25, 0x86	; 134
 67c:	86 2f       	mov	r24, r22
 67e:	70 e0       	ldi	r23, 0x00	; 0
 680:	60 e0       	ldi	r22, 0x00	; 0
 682:	2a f0       	brmi	.+10     	; 0x68e <__floatsisf+0x6c>
 684:	9a 95       	dec	r25
 686:	66 0f       	add	r22, r22
 688:	77 1f       	adc	r23, r23
 68a:	88 1f       	adc	r24, r24
 68c:	da f7       	brpl	.-10     	; 0x684 <__floatsisf+0x62>
 68e:	88 0f       	add	r24, r24
 690:	96 95       	lsr	r25
 692:	87 95       	ror	r24
 694:	97 f9       	bld	r25, 7
 696:	08 95       	ret

00000698 <__fp_inf>:
 698:	97 f9       	bld	r25, 7
 69a:	9f 67       	ori	r25, 0x7F	; 127
 69c:	80 e8       	ldi	r24, 0x80	; 128
 69e:	70 e0       	ldi	r23, 0x00	; 0
 6a0:	60 e0       	ldi	r22, 0x00	; 0
 6a2:	08 95       	ret

000006a4 <__fp_nan>:
 6a4:	9f ef       	ldi	r25, 0xFF	; 255
 6a6:	80 ec       	ldi	r24, 0xC0	; 192
 6a8:	08 95       	ret

000006aa <__fp_pscA>:
 6aa:	00 24       	eor	r0, r0
 6ac:	0a 94       	dec	r0
 6ae:	16 16       	cp	r1, r22
 6b0:	17 06       	cpc	r1, r23
 6b2:	18 06       	cpc	r1, r24
 6b4:	09 06       	cpc	r0, r25
 6b6:	08 95       	ret

000006b8 <__fp_pscB>:
 6b8:	00 24       	eor	r0, r0
 6ba:	0a 94       	dec	r0
 6bc:	12 16       	cp	r1, r18
 6be:	13 06       	cpc	r1, r19
 6c0:	14 06       	cpc	r1, r20
 6c2:	05 06       	cpc	r0, r21
 6c4:	08 95       	ret

000006c6 <__fp_round>:
 6c6:	09 2e       	mov	r0, r25
 6c8:	03 94       	inc	r0
 6ca:	00 0c       	add	r0, r0
 6cc:	11 f4       	brne	.+4      	; 0x6d2 <__fp_round+0xc>
 6ce:	88 23       	and	r24, r24
 6d0:	52 f0       	brmi	.+20     	; 0x6e6 <__fp_round+0x20>
 6d2:	bb 0f       	add	r27, r27
 6d4:	40 f4       	brcc	.+16     	; 0x6e6 <__fp_round+0x20>
 6d6:	bf 2b       	or	r27, r31
 6d8:	11 f4       	brne	.+4      	; 0x6de <__fp_round+0x18>
 6da:	60 ff       	sbrs	r22, 0
 6dc:	04 c0       	rjmp	.+8      	; 0x6e6 <__fp_round+0x20>
 6de:	6f 5f       	subi	r22, 0xFF	; 255
 6e0:	7f 4f       	sbci	r23, 0xFF	; 255
 6e2:	8f 4f       	sbci	r24, 0xFF	; 255
 6e4:	9f 4f       	sbci	r25, 0xFF	; 255
 6e6:	08 95       	ret

000006e8 <__fp_split3>:
 6e8:	57 fd       	sbrc	r21, 7
 6ea:	90 58       	subi	r25, 0x80	; 128
 6ec:	44 0f       	add	r20, r20
 6ee:	55 1f       	adc	r21, r21
 6f0:	59 f0       	breq	.+22     	; 0x708 <__fp_splitA+0x10>
 6f2:	5f 3f       	cpi	r21, 0xFF	; 255
 6f4:	71 f0       	breq	.+28     	; 0x712 <__fp_splitA+0x1a>
 6f6:	47 95       	ror	r20

000006f8 <__fp_splitA>:
 6f8:	88 0f       	add	r24, r24
 6fa:	97 fb       	bst	r25, 7
 6fc:	99 1f       	adc	r25, r25
 6fe:	61 f0       	breq	.+24     	; 0x718 <__fp_splitA+0x20>
 700:	9f 3f       	cpi	r25, 0xFF	; 255
 702:	79 f0       	breq	.+30     	; 0x722 <__fp_splitA+0x2a>
 704:	87 95       	ror	r24
 706:	08 95       	ret
 708:	12 16       	cp	r1, r18
 70a:	13 06       	cpc	r1, r19
 70c:	14 06       	cpc	r1, r20
 70e:	55 1f       	adc	r21, r21
 710:	f2 cf       	rjmp	.-28     	; 0x6f6 <__fp_split3+0xe>
 712:	46 95       	lsr	r20
 714:	f1 df       	rcall	.-30     	; 0x6f8 <__fp_splitA>
 716:	08 c0       	rjmp	.+16     	; 0x728 <__fp_splitA+0x30>
 718:	16 16       	cp	r1, r22
 71a:	17 06       	cpc	r1, r23
 71c:	18 06       	cpc	r1, r24
 71e:	99 1f       	adc	r25, r25
 720:	f1 cf       	rjmp	.-30     	; 0x704 <__fp_splitA+0xc>
 722:	86 95       	lsr	r24
 724:	71 05       	cpc	r23, r1
 726:	61 05       	cpc	r22, r1
 728:	08 94       	sec
 72a:	08 95       	ret

0000072c <__fp_zero>:
 72c:	e8 94       	clt

0000072e <__fp_szero>:
 72e:	bb 27       	eor	r27, r27
 730:	66 27       	eor	r22, r22
 732:	77 27       	eor	r23, r23
 734:	cb 01       	movw	r24, r22
 736:	97 f9       	bld	r25, 7
 738:	08 95       	ret

0000073a <__mulsf3>:
 73a:	0b d0       	rcall	.+22     	; 0x752 <__mulsf3x>
 73c:	c4 cf       	rjmp	.-120    	; 0x6c6 <__fp_round>
 73e:	b5 df       	rcall	.-150    	; 0x6aa <__fp_pscA>
 740:	28 f0       	brcs	.+10     	; 0x74c <__mulsf3+0x12>
 742:	ba df       	rcall	.-140    	; 0x6b8 <__fp_pscB>
 744:	18 f0       	brcs	.+6      	; 0x74c <__mulsf3+0x12>
 746:	95 23       	and	r25, r21
 748:	09 f0       	breq	.+2      	; 0x74c <__mulsf3+0x12>
 74a:	a6 cf       	rjmp	.-180    	; 0x698 <__fp_inf>
 74c:	ab cf       	rjmp	.-170    	; 0x6a4 <__fp_nan>
 74e:	11 24       	eor	r1, r1
 750:	ee cf       	rjmp	.-36     	; 0x72e <__fp_szero>

00000752 <__mulsf3x>:
 752:	ca df       	rcall	.-108    	; 0x6e8 <__fp_split3>
 754:	a0 f3       	brcs	.-24     	; 0x73e <__mulsf3+0x4>

00000756 <__mulsf3_pse>:
 756:	95 9f       	mul	r25, r21
 758:	d1 f3       	breq	.-12     	; 0x74e <__mulsf3+0x14>
 75a:	95 0f       	add	r25, r21
 75c:	50 e0       	ldi	r21, 0x00	; 0
 75e:	55 1f       	adc	r21, r21
 760:	62 9f       	mul	r22, r18
 762:	f0 01       	movw	r30, r0
 764:	72 9f       	mul	r23, r18
 766:	bb 27       	eor	r27, r27
 768:	f0 0d       	add	r31, r0
 76a:	b1 1d       	adc	r27, r1
 76c:	63 9f       	mul	r22, r19
 76e:	aa 27       	eor	r26, r26
 770:	f0 0d       	add	r31, r0
 772:	b1 1d       	adc	r27, r1
 774:	aa 1f       	adc	r26, r26
 776:	64 9f       	mul	r22, r20
 778:	66 27       	eor	r22, r22
 77a:	b0 0d       	add	r27, r0
 77c:	a1 1d       	adc	r26, r1
 77e:	66 1f       	adc	r22, r22
 780:	82 9f       	mul	r24, r18
 782:	22 27       	eor	r18, r18
 784:	b0 0d       	add	r27, r0
 786:	a1 1d       	adc	r26, r1
 788:	62 1f       	adc	r22, r18
 78a:	73 9f       	mul	r23, r19
 78c:	b0 0d       	add	r27, r0
 78e:	a1 1d       	adc	r26, r1
 790:	62 1f       	adc	r22, r18
 792:	83 9f       	mul	r24, r19
 794:	a0 0d       	add	r26, r0
 796:	61 1d       	adc	r22, r1
 798:	22 1f       	adc	r18, r18
 79a:	74 9f       	mul	r23, r20
 79c:	33 27       	eor	r19, r19
 79e:	a0 0d       	add	r26, r0
 7a0:	61 1d       	adc	r22, r1
 7a2:	23 1f       	adc	r18, r19
 7a4:	84 9f       	mul	r24, r20
 7a6:	60 0d       	add	r22, r0
 7a8:	21 1d       	adc	r18, r1
 7aa:	82 2f       	mov	r24, r18
 7ac:	76 2f       	mov	r23, r22
 7ae:	6a 2f       	mov	r22, r26
 7b0:	11 24       	eor	r1, r1
 7b2:	9f 57       	subi	r25, 0x7F	; 127
 7b4:	50 40       	sbci	r21, 0x00	; 0
 7b6:	8a f0       	brmi	.+34     	; 0x7da <__mulsf3_pse+0x84>
 7b8:	e1 f0       	breq	.+56     	; 0x7f2 <__mulsf3_pse+0x9c>
 7ba:	88 23       	and	r24, r24
 7bc:	4a f0       	brmi	.+18     	; 0x7d0 <__mulsf3_pse+0x7a>
 7be:	ee 0f       	add	r30, r30
 7c0:	ff 1f       	adc	r31, r31
 7c2:	bb 1f       	adc	r27, r27
 7c4:	66 1f       	adc	r22, r22
 7c6:	77 1f       	adc	r23, r23
 7c8:	88 1f       	adc	r24, r24
 7ca:	91 50       	subi	r25, 0x01	; 1
 7cc:	50 40       	sbci	r21, 0x00	; 0
 7ce:	a9 f7       	brne	.-22     	; 0x7ba <__mulsf3_pse+0x64>
 7d0:	9e 3f       	cpi	r25, 0xFE	; 254
 7d2:	51 05       	cpc	r21, r1
 7d4:	70 f0       	brcs	.+28     	; 0x7f2 <__mulsf3_pse+0x9c>
 7d6:	60 cf       	rjmp	.-320    	; 0x698 <__fp_inf>
 7d8:	aa cf       	rjmp	.-172    	; 0x72e <__fp_szero>
 7da:	5f 3f       	cpi	r21, 0xFF	; 255
 7dc:	ec f3       	brlt	.-6      	; 0x7d8 <__mulsf3_pse+0x82>
 7de:	98 3e       	cpi	r25, 0xE8	; 232
 7e0:	dc f3       	brlt	.-10     	; 0x7d8 <__mulsf3_pse+0x82>
 7e2:	86 95       	lsr	r24
 7e4:	77 95       	ror	r23
 7e6:	67 95       	ror	r22
 7e8:	b7 95       	ror	r27
 7ea:	f7 95       	ror	r31
 7ec:	e7 95       	ror	r30
 7ee:	9f 5f       	subi	r25, 0xFF	; 255
 7f0:	c1 f7       	brne	.-16     	; 0x7e2 <__mulsf3_pse+0x8c>
 7f2:	fe 2b       	or	r31, r30
 7f4:	88 0f       	add	r24, r24
 7f6:	91 1d       	adc	r25, r1
 7f8:	96 95       	lsr	r25
 7fa:	87 95       	ror	r24
 7fc:	97 f9       	bld	r25, 7
 7fe:	08 95       	ret

00000800 <do_rand>:
 800:	8f 92       	push	r8
 802:	9f 92       	push	r9
 804:	af 92       	push	r10
 806:	bf 92       	push	r11
 808:	cf 92       	push	r12
 80a:	df 92       	push	r13
 80c:	ef 92       	push	r14
 80e:	ff 92       	push	r15
 810:	cf 93       	push	r28
 812:	df 93       	push	r29
 814:	ec 01       	movw	r28, r24
 816:	68 81       	ld	r22, Y
 818:	79 81       	ldd	r23, Y+1	; 0x01
 81a:	8a 81       	ldd	r24, Y+2	; 0x02
 81c:	9b 81       	ldd	r25, Y+3	; 0x03
 81e:	61 15       	cp	r22, r1
 820:	71 05       	cpc	r23, r1
 822:	81 05       	cpc	r24, r1
 824:	91 05       	cpc	r25, r1
 826:	21 f4       	brne	.+8      	; 0x830 <do_rand+0x30>
 828:	64 e2       	ldi	r22, 0x24	; 36
 82a:	79 ed       	ldi	r23, 0xD9	; 217
 82c:	8b e5       	ldi	r24, 0x5B	; 91
 82e:	97 e0       	ldi	r25, 0x07	; 7
 830:	2d e1       	ldi	r18, 0x1D	; 29
 832:	33 ef       	ldi	r19, 0xF3	; 243
 834:	41 e0       	ldi	r20, 0x01	; 1
 836:	50 e0       	ldi	r21, 0x00	; 0
 838:	38 d0       	rcall	.+112    	; 0x8aa <__divmodsi4>
 83a:	49 01       	movw	r8, r18
 83c:	5a 01       	movw	r10, r20
 83e:	9b 01       	movw	r18, r22
 840:	ac 01       	movw	r20, r24
 842:	a7 ea       	ldi	r26, 0xA7	; 167
 844:	b1 e4       	ldi	r27, 0x41	; 65
 846:	4d d0       	rcall	.+154    	; 0x8e2 <__muluhisi3>
 848:	6b 01       	movw	r12, r22
 84a:	7c 01       	movw	r14, r24
 84c:	ac ee       	ldi	r26, 0xEC	; 236
 84e:	b4 ef       	ldi	r27, 0xF4	; 244
 850:	a5 01       	movw	r20, r10
 852:	94 01       	movw	r18, r8
 854:	52 d0       	rcall	.+164    	; 0x8fa <__mulohisi3>
 856:	dc 01       	movw	r26, r24
 858:	cb 01       	movw	r24, r22
 85a:	8c 0d       	add	r24, r12
 85c:	9d 1d       	adc	r25, r13
 85e:	ae 1d       	adc	r26, r14
 860:	bf 1d       	adc	r27, r15
 862:	b7 ff       	sbrs	r27, 7
 864:	03 c0       	rjmp	.+6      	; 0x86c <do_rand+0x6c>
 866:	01 97       	sbiw	r24, 0x01	; 1
 868:	a1 09       	sbc	r26, r1
 86a:	b0 48       	sbci	r27, 0x80	; 128
 86c:	88 83       	st	Y, r24
 86e:	99 83       	std	Y+1, r25	; 0x01
 870:	aa 83       	std	Y+2, r26	; 0x02
 872:	bb 83       	std	Y+3, r27	; 0x03
 874:	9f 77       	andi	r25, 0x7F	; 127
 876:	df 91       	pop	r29
 878:	cf 91       	pop	r28
 87a:	ff 90       	pop	r15
 87c:	ef 90       	pop	r14
 87e:	df 90       	pop	r13
 880:	cf 90       	pop	r12
 882:	bf 90       	pop	r11
 884:	af 90       	pop	r10
 886:	9f 90       	pop	r9
 888:	8f 90       	pop	r8
 88a:	08 95       	ret

0000088c <rand_r>:
 88c:	b9 cf       	rjmp	.-142    	; 0x800 <do_rand>

0000088e <rand>:
 88e:	80 e0       	ldi	r24, 0x00	; 0
 890:	91 e0       	ldi	r25, 0x01	; 1
 892:	b6 cf       	rjmp	.-148    	; 0x800 <do_rand>

00000894 <srand>:
 894:	a0 e0       	ldi	r26, 0x00	; 0
 896:	b0 e0       	ldi	r27, 0x00	; 0
 898:	80 93 00 01 	sts	0x0100, r24
 89c:	90 93 01 01 	sts	0x0101, r25
 8a0:	a0 93 02 01 	sts	0x0102, r26
 8a4:	b0 93 03 01 	sts	0x0103, r27
 8a8:	08 95       	ret

000008aa <__divmodsi4>:
 8aa:	05 2e       	mov	r0, r21
 8ac:	97 fb       	bst	r25, 7
 8ae:	16 f4       	brtc	.+4      	; 0x8b4 <__divmodsi4+0xa>
 8b0:	00 94       	com	r0
 8b2:	0f d0       	rcall	.+30     	; 0x8d2 <__negsi2>
 8b4:	57 fd       	sbrc	r21, 7
 8b6:	05 d0       	rcall	.+10     	; 0x8c2 <__divmodsi4_neg2>
 8b8:	24 d0       	rcall	.+72     	; 0x902 <__udivmodsi4>
 8ba:	07 fc       	sbrc	r0, 7
 8bc:	02 d0       	rcall	.+4      	; 0x8c2 <__divmodsi4_neg2>
 8be:	46 f4       	brtc	.+16     	; 0x8d0 <__divmodsi4_exit>
 8c0:	08 c0       	rjmp	.+16     	; 0x8d2 <__negsi2>

000008c2 <__divmodsi4_neg2>:
 8c2:	50 95       	com	r21
 8c4:	40 95       	com	r20
 8c6:	30 95       	com	r19
 8c8:	21 95       	neg	r18
 8ca:	3f 4f       	sbci	r19, 0xFF	; 255
 8cc:	4f 4f       	sbci	r20, 0xFF	; 255
 8ce:	5f 4f       	sbci	r21, 0xFF	; 255

000008d0 <__divmodsi4_exit>:
 8d0:	08 95       	ret

000008d2 <__negsi2>:
 8d2:	90 95       	com	r25
 8d4:	80 95       	com	r24
 8d6:	70 95       	com	r23
 8d8:	61 95       	neg	r22
 8da:	7f 4f       	sbci	r23, 0xFF	; 255
 8dc:	8f 4f       	sbci	r24, 0xFF	; 255
 8de:	9f 4f       	sbci	r25, 0xFF	; 255
 8e0:	08 95       	ret

000008e2 <__muluhisi3>:
 8e2:	31 d0       	rcall	.+98     	; 0x946 <__umulhisi3>
 8e4:	a5 9f       	mul	r26, r21
 8e6:	90 0d       	add	r25, r0
 8e8:	b4 9f       	mul	r27, r20
 8ea:	90 0d       	add	r25, r0
 8ec:	a4 9f       	mul	r26, r20
 8ee:	80 0d       	add	r24, r0
 8f0:	91 1d       	adc	r25, r1
 8f2:	11 24       	eor	r1, r1
 8f4:	08 95       	ret

000008f6 <__mulshisi3>:
 8f6:	b7 ff       	sbrs	r27, 7
 8f8:	f4 cf       	rjmp	.-24     	; 0x8e2 <__muluhisi3>

000008fa <__mulohisi3>:
 8fa:	f3 df       	rcall	.-26     	; 0x8e2 <__muluhisi3>
 8fc:	82 1b       	sub	r24, r18
 8fe:	93 0b       	sbc	r25, r19
 900:	08 95       	ret

00000902 <__udivmodsi4>:
 902:	a1 e2       	ldi	r26, 0x21	; 33
 904:	1a 2e       	mov	r1, r26
 906:	aa 1b       	sub	r26, r26
 908:	bb 1b       	sub	r27, r27
 90a:	fd 01       	movw	r30, r26
 90c:	0d c0       	rjmp	.+26     	; 0x928 <__udivmodsi4_ep>

0000090e <__udivmodsi4_loop>:
 90e:	aa 1f       	adc	r26, r26
 910:	bb 1f       	adc	r27, r27
 912:	ee 1f       	adc	r30, r30
 914:	ff 1f       	adc	r31, r31
 916:	a2 17       	cp	r26, r18
 918:	b3 07       	cpc	r27, r19
 91a:	e4 07       	cpc	r30, r20
 91c:	f5 07       	cpc	r31, r21
 91e:	20 f0       	brcs	.+8      	; 0x928 <__udivmodsi4_ep>
 920:	a2 1b       	sub	r26, r18
 922:	b3 0b       	sbc	r27, r19
 924:	e4 0b       	sbc	r30, r20
 926:	f5 0b       	sbc	r31, r21

00000928 <__udivmodsi4_ep>:
 928:	66 1f       	adc	r22, r22
 92a:	77 1f       	adc	r23, r23
 92c:	88 1f       	adc	r24, r24
 92e:	99 1f       	adc	r25, r25
 930:	1a 94       	dec	r1
 932:	69 f7       	brne	.-38     	; 0x90e <__udivmodsi4_loop>
 934:	60 95       	com	r22
 936:	70 95       	com	r23
 938:	80 95       	com	r24
 93a:	90 95       	com	r25
 93c:	9b 01       	movw	r18, r22
 93e:	ac 01       	movw	r20, r24
 940:	bd 01       	movw	r22, r26
 942:	cf 01       	movw	r24, r30
 944:	08 95       	ret

00000946 <__umulhisi3>:
 946:	a2 9f       	mul	r26, r18
 948:	b0 01       	movw	r22, r0
 94a:	b3 9f       	mul	r27, r19
 94c:	c0 01       	movw	r24, r0
 94e:	a3 9f       	mul	r26, r19
 950:	70 0d       	add	r23, r0
 952:	81 1d       	adc	r24, r1
 954:	11 24       	eor	r1, r1
 956:	91 1d       	adc	r25, r1
 958:	b2 9f       	mul	r27, r18
 95a:	70 0d       	add	r23, r0
 95c:	81 1d       	adc	r24, r1
 95e:	11 24       	eor	r1, r1
 960:	91 1d       	adc	r25, r1
 962:	08 95       	ret

00000964 <_exit>:
 964:	f8 94       	cli

00000966 <__stop_program>:
 966:	ff cf       	rjmp	.-2      	; 0x966 <__stop_program>
